target datalayout = "e-m:e-p270:32:32-p271:32:32-p272:64:64-i64:64-i128:128-f80:128-n8:16:32:64-S128"
target triple = "x86_64-pc-linux-gnu"

%"struct.Luau::CodeGen::X64::RegisterX64" = type { i8 }
%"struct.Luau::CodeGen::IrInst" = type <{ i8, [3 x i8], %"struct.Luau::CodeGen::IrOp", %"struct.Luau::CodeGen::IrOp", %"struct.Luau::CodeGen::IrOp", %"struct.Luau::CodeGen::IrOp", %"struct.Luau::CodeGen::IrOp", %"struct.Luau::CodeGen::IrOp", %"struct.Luau::CodeGen::IrOp", i32, i16, %"struct.Luau::CodeGen::X64::RegisterX64", %"struct.Luau::CodeGen::A64::RegisterA64", i8, i8, i8, i8 }>
%"struct.Luau::CodeGen::IrOp" = type { i32 }
%"struct.Luau::CodeGen::A64::RegisterA64" = type { i8 }

; Function Attrs: mustprogress nounwind uwtable
define dso_local noundef zeroext i1 @_ZNK4Luau7CodeGen3X6413IrRegAllocX6412isLastUseRegERKNS0_6IrInstEj(ptr noundef nonnull align 8 dereferenceable(256) %0, ptr noundef nonnull align 4 dereferenceable(43) %1, i32 noundef %2) #1 align 2 {
  %4 = alloca ptr, align 8
  %5 = alloca ptr, align 8
  %6 = alloca i32, align 4
  store ptr %0, ptr %4, align 8
  store ptr %1, ptr %5, align 8
  store i32 %2, ptr %6, align 4
  %7 = load ptr, ptr %5, align 8
  %8 = getelementptr inbounds %"struct.Luau::CodeGen::IrInst", ptr %7, i32 0, i32 9
  %9 = load i32, ptr %8, align 4
  %10 = load i32, ptr %6, align 4
  %11 = icmp eq i32 %9, %10
  br i1 %11, label %12, label %18

12:                                               ; preds = %3
  %13 = load ptr, ptr %5, align 8
  %14 = getelementptr inbounds %"struct.Luau::CodeGen::IrInst", ptr %13, i32 0, i32 13
  %15 = load i8, ptr %14, align 4
  %16 = trunc i8 %15 to i1
  %17 = xor i1 %16, true
  br label %18

18:                                               ; preds = %12, %3
  %19 = phi i1 [ false, %3 ], [ %17, %12 ]
  ret i1 %19
}