; Function Attrs: mustprogress nofree norecurse nosync nounwind willreturn memory(argmem: read) uwtable
define dso_local noundef zeroext i1 @_ZNK4Luau7CodeGen3X6413IrRegAllocX6412isLastUseRegERKNS0_6IrInstEj(ptr nocapture noundef nonnull readnone align 8 dereferenceable(256) %0, ptr nocapture noundef nonnull readonly align 4 dereferenceable(43) %1, i32 noundef %2) local_unnamed_addr #3 align 2 {
  %4 = getelementptr inbounds i8, ptr %1, i64 32
  %5 = load i32, ptr %4, align 4
  %6 = icmp eq i32 %5, %2
  %7 = getelementptr inbounds i8, ptr %1, i64 40
  %8 = load i8, ptr %7, align 4
  %9 = trunc i8 %8 to i1
  %10 = xor i1 %9, true
  %11 = select i1 %6, i1 %10, i1 false
  ret i1 %11
}